; Function Attrs: mustprogress nofree norecurse nosync nounwind willreturn memory(read, argmem: readwrite, inaccessiblemem: readwrite) uwtable
define void @_ZTv0_n32_N5arrow3ipc8internal26IoRecordedRandomAccessFile5CloseEv(ptr noalias nocapture writeonly sret(%"class.arrow::Status") align 8 %agg.result, ptr nocapture noundef %this) unnamed_addr #10 align 2 {
entry:
  %0 = load ptr, ptr %this, align 8
  %1 = getelementptr inbounds i8, ptr %0, i64 -32
  %2 = load i64, ptr %1, align 8
  %3 = getelementptr inbounds i8, ptr %this, i64 %2
  tail call void @llvm.experimental.noalias.scope.decl(metadata !695)
  %closed_.i = getelementptr inbounds i8, ptr %3, i64 64
  store i8 1, ptr %closed_.i, align 8, !noalias !695
  store ptr null, ptr %agg.result, align 8, !alias.scope !698
  ret void
}